; Function Attrs: mustprogress uwtable
define noundef i32 @uldn_variantDisplayName_77(ptr noundef %0, ptr noundef %1, ptr noundef %2, i32 noundef %3, ptr noundef %4) local_unnamed_addr #1 personality ptr @__gxx_personality_v0 {
  %6 = alloca %"class.icu_77::UnicodeString", align 8
  %7 = alloca %"class.icu_77::Char16Ptr", align 8
  %8 = load i32, ptr %4, align 4, !tbaa !13
  %9 = icmp slt i32 %8, 1
  br i1 %9, label %10, label %33

10:                                               ; preds = %5
  %11 = icmp eq ptr %0, null
  %12 = icmp eq ptr %1, null
  %or.cond = or i1 %11, %12
  br i1 %or.cond, label %17, label %13

13:                                               ; preds = %10
  %14 = icmp eq ptr %2, null
  %15 = icmp sgt i32 %3, 0
  %or.cond3 = and i1 %14, %15
  %16 = icmp slt i32 %3, 0
  %or.cond5 = or i1 %16, %or.cond3
  br i1 %or.cond5, label %17, label %18

17:                                               ; preds = %13, %10
  store i32 1, ptr %4, align 4, !tbaa !13
  br label %33

18:                                               ; preds = %13
  call void @llvm.lifetime.start.p0(i64 64, ptr nonnull %6) #19
  call void @_ZN6icu_7713UnicodeStringC1EPDsii(ptr noundef nonnull align 8 dereferenceable(64) %6, ptr noundef %2, i32 noundef 0, i32 noundef %3)
  %19 = load ptr, ptr %0, align 8, !tbaa !21
  %20 = getelementptr inbounds nuw i8, ptr %19, i64 96
  %21 = load ptr, ptr %20, align 8
  %22 = invoke noundef nonnull align 8 dereferenceable(64) ptr %21(ptr noundef nonnull align 8 dereferenceable(8) %0, ptr noundef nonnull %1, ptr noundef nonnull align 8 dereferenceable(64) %6)
          to label %23 unwind label %27

23:                                               ; preds = %18
  store ptr %2, ptr %7, align 8, !tbaa !62
  %24 = invoke noundef i32 @_ZNK6icu_7713UnicodeString7extractENS_9Char16PtrEiR10UErrorCode(ptr noundef nonnull align 8 dereferenceable(64) %6, ptr noundef nonnull %7, i32 noundef %3, ptr noundef nonnull align 4 dereferenceable(4) %4)
          to label %25 unwind label %29

25:                                               ; preds = %23
  %26 = load ptr, ptr %7, align 8, !tbaa !62
  call void asm sideeffect "", "rm,~{memory},~{dirflag},~{fpsr},~{flags}"(ptr %26) #19, !srcloc !65
  call void @_ZN6icu_7713UnicodeStringD1Ev(ptr noundef nonnull align 8 dereferenceable(64) %6) #19
  call void @llvm.lifetime.end.p0(i64 64, ptr nonnull %6) #19
  br label %33

27:                                               ; preds = %18
  %28 = landingpad { ptr, i32 }
          cleanup
  br label %32

29:                                               ; preds = %23
  %30 = landingpad { ptr, i32 }
          cleanup
  %31 = load ptr, ptr %7, align 8, !tbaa !62
  call void asm sideeffect "", "rm,~{memory},~{dirflag},~{fpsr},~{flags}"(ptr %31) #19, !srcloc !65
  br label %32

32:                                               ; preds = %29, %27
  %.pn = phi { ptr, i32 } [ %30, %29 ], [ %28, %27 ]
  call void @_ZN6icu_7713UnicodeStringD1Ev(ptr noundef nonnull align 8 dereferenceable(64) %6) #19
  call void @llvm.lifetime.end.p0(i64 64, ptr nonnull %6) #19
  resume { ptr, i32 } %.pn

33:                                               ; preds = %5, %25, %17
  %.022 = phi i32 [ 0, %17 ], [ %24, %25 ], [ 0, %5 ]
  ret i32 %.022
}